; Function Attrs: mustprogress nofree norecurse nosync nounwind willreturn memory(argmem: read) uwtable
define hidden noundef range(i32 -1, 2) i32 @_ZN11upolynomial7manager22eval_sign_at_minus_infEjPK3mpz(ptr noundef nonnull readnone align 8 captures(none) dereferenceable(312) %0, i32 noundef %1, ptr noundef readonly captures(none) %2) local_unnamed_addr #4 align 2 {
  %4 = icmp eq i32 %1, 0
  br i1 %4, label %15, label %5

5:                                                ; preds = %3
  %6 = add i32 %1, -1
  %7 = and i32 %6, 1
  %8 = icmp eq i32 %7, 0
  %9 = zext i32 %6 to i64
  %10 = getelementptr inbounds nuw %class.mpz, ptr %2, i64 %9
  %11 = load i32, ptr %10, align 8, !tbaa !8
  br i1 %8, label %12, label %14

12:                                               ; preds = %5
  %13 = icmp eq i32 %11, 0
  %.inv.i = icmp slt i32 %11, 1
  %..i = select i1 %.inv.i, i32 -1, i32 1
  %.0.i = select i1 %13, i32 0, i32 %..i
  br label %15

14:                                               ; preds = %5
  %switch.select3.i = tail call i32 @llvm.scmp.i32.i32(i32 0, i32 %11)
  br label %15

15:                                               ; preds = %12, %14, %3
  %.0 = phi i32 [ 0, %3 ], [ %.0.i, %12 ], [ %switch.select3.i, %14 ]
  ret i32 %.0
}